; Function Attrs: mustprogress uwtable
define hidden noundef zeroext i1 @_ZN3smt10theory_seq9set_emptyEP4expr(ptr noundef nonnull align 8 dereferenceable(4328) %this, ptr noundef %x) local_unnamed_addr #3 align 2 personality ptr @__gxx_personality_v0 {
entry:
  %ref.tmp = alloca %class.obj_ref, align 8
  %m_autil = getelementptr inbounds i8, ptr %this, i64 1864
  %call = tail call noundef ptr @_ZN10arith_util6mk_intEi(ptr noundef nonnull align 8 dereferenceable(16) %m_autil, i32 noundef 0)
  %m_seq_rewrite.i = getelementptr inbounds i8, ptr %this, i64 1224
  call void @_ZN12seq_rewriter9mk_lengthEP4expr(ptr nonnull sret(%class.obj_ref) align 8 %ref.tmp, ptr noundef nonnull align 8 dereferenceable(497) %m_seq_rewrite.i, ptr noundef %x)
  %0 = load ptr, ptr %ref.tmp, align 8
  %call5 = invoke i32 @_ZN3smt6theory5mk_eqEP4exprS2_b(ptr noundef nonnull align 8 dereferenceable(53) %this, ptr noundef %call, ptr noundef %0, i1 noundef zeroext false)
          to label %invoke.cont4 unwind label %lpad

invoke.cont4:                                     ; preds = %entry
  %call12 = invoke i32 @_ZN3smt10theory_seq11mk_eq_emptyEP4exprb(ptr noundef nonnull align 8 dereferenceable(4328) %this, ptr noundef %x, i1 noundef zeroext true)
          to label %invoke.cont11 unwind label %lpad

invoke.cont11:                                    ; preds = %invoke.cont4
  %xor.i = xor i32 %call5, 1
  %agg.tmp14.sroa.0.0.copyload.b = load i1, ptr @_ZN3smtL12null_literalE.0, align 4
  %agg.tmp14.sroa.0.0.copyload = select i1 %agg.tmp14.sroa.0.0.copyload.b, i32 -2, i32 0
  invoke void @_ZN3smt10theory_seq9add_axiomEN3sat7literalES2_S2_S2_S2_(ptr noundef nonnull align 8 dereferenceable(4328) %this, i32 %xor.i, i32 %call12, i32 %agg.tmp14.sroa.0.0.copyload, i32 %agg.tmp14.sroa.0.0.copyload, i32 %agg.tmp14.sroa.0.0.copyload)
          to label %invoke.cont22 unwind label %lpad

invoke.cont22:                                    ; preds = %invoke.cont11
  %1 = load ptr, ptr %ref.tmp, align 8
  %tobool.not.i.i = icmp eq ptr %1, null
  br i1 %tobool.not.i.i, label %_ZN7obj_refI4expr11ast_managerED2Ev.exit, label %if.then.i.i.i

if.then.i.i.i:                                    ; preds = %invoke.cont22
  %m_manager.i.i = getelementptr inbounds i8, ptr %ref.tmp, i64 8
  %2 = load ptr, ptr %m_manager.i.i, align 8
  %m_ref_count.i.i.i.i = getelementptr inbounds i8, ptr %1, i64 8
  %3 = load i32, ptr %m_ref_count.i.i.i.i, align 4
  %dec.i.i.i.i = add i32 %3, -1
  store i32 %dec.i.i.i.i, ptr %m_ref_count.i.i.i.i, align 4
  %cmp.i.i.i = icmp eq i32 %dec.i.i.i.i, 0
  br i1 %cmp.i.i.i, label %if.then2.i.i.i, label %_ZN7obj_refI4expr11ast_managerED2Ev.exit

if.then2.i.i.i:                                   ; preds = %if.then.i.i.i
  invoke void @_ZN11ast_manager11delete_nodeEP3ast(ptr noundef nonnull align 8 dereferenceable(976) %2, ptr noundef nonnull %1)
          to label %_ZN7obj_refI4expr11ast_managerED2Ev.exit unwind label %terminate.lpad.i

terminate.lpad.i:                                 ; preds = %if.then2.i.i.i
  %4 = landingpad { ptr, i32 }
          catch ptr null
  %5 = extractvalue { ptr, i32 } %4, 0
  call void @__clang_call_terminate(ptr %5) #25
  unreachable

_ZN7obj_refI4expr11ast_managerED2Ev.exit:         ; preds = %invoke.cont22, %if.then.i.i.i, %if.then2.i.i.i
  ret i1 true

lpad:                                             ; preds = %invoke.cont11, %invoke.cont4, %entry
  %6 = landingpad { ptr, i32 }
          cleanup
  call void @_ZN7obj_refI4expr11ast_managerED2Ev(ptr noundef nonnull align 8 dereferenceable(16) %ref.tmp) #23
  resume { ptr, i32 } %6
}